; Function Attrs: alwaysinline norecurse nounwind uwtable
define internal void @_ZN8LightGBML24Int16HistogramSumReducerEPKcPcii.omp_outlined(ptr noalias noundef readonly captures(none) %0, ptr noalias readnone captures(none) %1, ptr noundef nonnull readonly align 4 captures(none) dereferenceable(4) %2, ptr noundef nonnull readonly align 8 captures(none) dereferenceable(8) %3, ptr noundef nonnull readonly align 8 captures(none) dereferenceable(8) %4) #20 {
  %6 = alloca i32, align 4
  %7 = alloca i32, align 4
  %8 = alloca i32, align 4
  %9 = alloca i32, align 4
  %10 = load i32, ptr %2, align 4, !tbaa !209
  %11 = icmp sgt i32 %10, 0
  br i1 %11, label %12, label %29

12:                                               ; preds = %5
  %13 = add nsw i32 %10, -1
  call void @llvm.lifetime.start.p0(i64 4, ptr nonnull %6) #21
  store i32 0, ptr %6, align 4, !tbaa !209
  call void @llvm.lifetime.start.p0(i64 4, ptr nonnull %7) #21
  store i32 %13, ptr %7, align 4, !tbaa !209
  call void @llvm.lifetime.start.p0(i64 4, ptr nonnull %8) #21
  store i32 1, ptr %8, align 4, !tbaa !209
  call void @llvm.lifetime.start.p0(i64 4, ptr nonnull %9) #21
  store i32 0, ptr %9, align 4, !tbaa !209
  %14 = load i32, ptr %0, align 4, !tbaa !209
  call void @__kmpc_for_static_init_4(ptr nonnull @1, i32 %14, i32 34, ptr nonnull %9, ptr nonnull %6, ptr nonnull %7, ptr nonnull %8, i32 1, i32 1)
  %15 = load i32, ptr %7, align 4, !tbaa !209
  %16 = call i32 @llvm.smin.i32(i32 %15, i32 %13)
  store i32 %16, ptr %7, align 4, !tbaa !209
  %17 = load i32, ptr %6, align 4, !tbaa !209
  %.not14 = icmp sgt i32 %17, %16
  br i1 %.not14, label %._crit_edge, label %.lr.ph

.lr.ph:                                           ; preds = %12
  %18 = load ptr, ptr %4, align 8, !tbaa !230
  %19 = load ptr, ptr %3, align 8, !tbaa !230
  %20 = sext i32 %17 to i64
  br label %21

21:                                               ; preds = %.lr.ph, %21
  %indvars.iv = phi i64 [ %20, %.lr.ph ], [ %indvars.iv.next, %21 ]
  %22 = getelementptr inbounds i32, ptr %18, i64 %indvars.iv
  %23 = load i32, ptr %22, align 4, !tbaa !209
  %24 = getelementptr inbounds i32, ptr %19, i64 %indvars.iv
  %25 = load i32, ptr %24, align 4, !tbaa !209
  %26 = add nsw i32 %25, %23
  store i32 %26, ptr %24, align 4, !tbaa !209
  %indvars.iv.next = add nsw i64 %indvars.iv, 1
  %27 = load i32, ptr %7, align 4, !tbaa !209
  %28 = sext i32 %27 to i64
  %.not.not = icmp slt i64 %indvars.iv, %28
  br i1 %.not.not, label %21, label %._crit_edge

._crit_edge:                                      ; preds = %21, %12
  call void @__kmpc_for_static_fini(ptr nonnull @1, i32 %14)
  call void @llvm.lifetime.end.p0(i64 4, ptr nonnull %9) #21
  call void @llvm.lifetime.end.p0(i64 4, ptr nonnull %8) #21
  call void @llvm.lifetime.end.p0(i64 4, ptr nonnull %7) #21
  call void @llvm.lifetime.end.p0(i64 4, ptr nonnull %6) #21
  br label %29

29:                                               ; preds = %._crit_edge, %5
  ret void
}